target datalayout = "e-m:e-p270:32:32-p271:32:32-p272:64:64-i64:64-i128:128-f80:128-n8:16:32:64-S128"
target triple = "x86_64-unknown-linux-gnu"

%"class.sat::literal" = type { i32 }
%"struct.sat::npn3_finder::ternary" = type { %"class.sat::literal", %"class.sat::literal", %"class.sat::literal", ptr }

; Function Attrs: mustprogress nounwind uwtable
define linkonce_odr hidden noundef zeroext i1 @_ZN3sateqERKNS_7literalES2_(ptr noundef nonnull align 4 dereferenceable(4) %l1, ptr noundef nonnull align 4 dereferenceable(4) %l2) #4 comdat {
entry:
  %l1.addr = alloca ptr, align 8
  %l2.addr = alloca ptr, align 8
  store ptr %l1, ptr %l1.addr, align 8
  store ptr %l2, ptr %l2.addr, align 8
  %0 = load ptr, ptr %l1.addr, align 8
  %m_val = getelementptr inbounds %"class.sat::literal", ptr %0, i32 0, i32 0
  %1 = load i32, ptr %m_val, align 4
  %2 = load ptr, ptr %l2.addr, align 8
  %m_val1 = getelementptr inbounds %"class.sat::literal", ptr %2, i32 0, i32 0
  %3 = load i32, ptr %m_val1, align 4
  %cmp = icmp eq i32 %1, %3
  ret i1 %cmp
}

; Function Attrs: mustprogress uwtable
define hidden noundef zeroext i1 @_ZNK3sat11npn3_finder7ternary2eqclERKS1_S4_(ptr noundef nonnull align 1 dereferenceable(1) %this, ptr noundef nonnull align 8 dereferenceable(24) %a, ptr noundef nonnull align 8 dereferenceable(24) %b) #5 align 2 {
entry:
  %this.addr = alloca ptr, align 8
  %a.addr = alloca ptr, align 8
  %b.addr = alloca ptr, align 8
  store ptr %this, ptr %this.addr, align 8
  store ptr %a, ptr %a.addr, align 8
  store ptr %b, ptr %b.addr, align 8
  %0 = load ptr, ptr %a.addr, align 8
  %x = getelementptr inbounds %"struct.sat::npn3_finder::ternary", ptr %0, i32 0, i32 0
  %1 = load ptr, ptr %b.addr, align 8
  %x2 = getelementptr inbounds %"struct.sat::npn3_finder::ternary", ptr %1, i32 0, i32 0
  %call = call noundef zeroext i1 @_ZN3sateqERKNS_7literalES2_(ptr noundef nonnull align 4 dereferenceable(4) %x, ptr noundef nonnull align 4 dereferenceable(4) %x2)
  br i1 %call, label %land.lhs.true, label %land.end

land.lhs.true:                                    ; preds = %entry
  %2 = load ptr, ptr %a.addr, align 8
  %y = getelementptr inbounds %"struct.sat::npn3_finder::ternary", ptr %2, i32 0, i32 1
  %3 = load ptr, ptr %b.addr, align 8
  %y3 = getelementptr inbounds %"struct.sat::npn3_finder::ternary", ptr %3, i32 0, i32 1
  %call4 = call noundef zeroext i1 @_ZN3sateqERKNS_7literalES2_(ptr noundef nonnull align 4 dereferenceable(4) %y, ptr noundef nonnull align 4 dereferenceable(4) %y3)
  br i1 %call4, label %land.rhs, label %land.end

land.rhs:                                         ; preds = %land.lhs.true
  %4 = load ptr, ptr %a.addr, align 8
  %z = getelementptr inbounds %"struct.sat::npn3_finder::ternary", ptr %4, i32 0, i32 2
  %5 = load ptr, ptr %b.addr, align 8
  %z5 = getelementptr inbounds %"struct.sat::npn3_finder::ternary", ptr %5, i32 0, i32 2
  %call6 = call noundef zeroext i1 @_ZN3sateqERKNS_7literalES2_(ptr noundef nonnull align 4 dereferenceable(4) %z, ptr noundef nonnull align 4 dereferenceable(4) %z5)
  br label %land.end

land.end:                                         ; preds = %land.rhs, %land.lhs.true, %entry
  %6 = phi i1 [ false, %land.lhs.true ], [ false, %entry ], [ %call6, %land.rhs ]
  ret i1 %6
}