; Function Attrs: mustprogress nofree norecurse nosync nounwind willreturn memory(argmem: read) uwtable
define hidden noundef zeroext i1 @_ZNK3sat11npn3_finder7ternary2eqclERKS1_S4_(ptr nocapture noundef nonnull readnone align 1 dereferenceable(1) %this, ptr nocapture noundef nonnull readonly align 8 dereferenceable(24) %a, ptr nocapture noundef nonnull readonly align 8 dereferenceable(24) %b) local_unnamed_addr #6 align 2 {
entry:
  %0 = load i32, ptr %a, align 8
  %1 = load i32, ptr %b, align 8
  %cmp.i = icmp eq i32 %0, %1
  br i1 %cmp.i, label %land.lhs.true, label %land.end

land.lhs.true:                                    ; preds = %entry
  %y = getelementptr inbounds i8, ptr %a, i64 4
  %y3 = getelementptr inbounds i8, ptr %b, i64 4
  %2 = load i32, ptr %y, align 4
  %3 = load i32, ptr %y3, align 4
  %cmp.i5 = icmp eq i32 %2, %3
  br i1 %cmp.i5, label %land.rhs, label %land.end

land.rhs:                                         ; preds = %land.lhs.true
  %z = getelementptr inbounds i8, ptr %a, i64 8
  %z5 = getelementptr inbounds i8, ptr %b, i64 8
  %4 = load i32, ptr %z, align 8
  %5 = load i32, ptr %z5, align 8
  %cmp.i6 = icmp eq i32 %4, %5
  br label %land.end

land.end:                                         ; preds = %land.rhs, %land.lhs.true, %entry
  %6 = phi i1 [ false, %land.lhs.true ], [ false, %entry ], [ %cmp.i6, %land.rhs ]
  ret i1 %6
}